target datalayout = "e-m:e-p270:32:32-p271:32:32-p272:64:64-i64:64-i128:128-f80:128-n8:16:32:64-S128"
target triple = "x86_64-pc-linux-gnu"

%"class.zmq::null_mechanism_t" = type <{ %"class.zmq::zap_client_t.base", i8, i8, i8, i8, i8, i8, [2 x i8], %"class.zmq::mechanism_base_t" }>
%"class.zmq::zap_client_t.base" = type { ptr, %"class.std::__cxx11::basic_string", %"class.std::__cxx11::basic_string" }
%"class.std::__cxx11::basic_string" = type { %"struct.std::__cxx11::basic_string<char>::_Alloc_hider", i64, %union.anon }
%"struct.std::__cxx11::basic_string<char>::_Alloc_hider" = type { ptr }
%union.anon = type { i64, [8 x i8] }
%"class.zmq::mechanism_base_t" = type { %"class.zmq::mechanism_t", ptr }
%"class.zmq::mechanism_t" = type { ptr, %"struct.zmq::options_t", %"class.std::map", %"class.std::map", %"struct.zmq::blob_t", %"struct.zmq::blob_t" }
%"struct.zmq::options_t" = type { i32, i32, i64, i8, [256 x i8], i32, i32, i32, i32, i32, i32, i32, i32, i8, %"struct.zmq::atomic_value_t", i32, i32, i32, i32, i32, i32, i64, i32, i32, i8, i32, i8, i8, i8, i8, i8, %"class.std::__cxx11::basic_string", %"class.std::__cxx11::basic_string", %"class.std::__cxx11::basic_string", i32, i32, i32, i32, %"class.std::vector", %"class.std::set", %"class.std::set", %"class.std::set.6", i32, i32, %"class.std::__cxx11::basic_string", %"class.std::__cxx11::basic_string", %"class.std::__cxx11::basic_string", [32 x i8], [32 x i8], [32 x i8], %"class.std::__cxx11::basic_string", %"class.std::__cxx11::basic_string", i32, i32, i8, i32, i8, i32, i8, i16, i32, i32, i32, %"class.std::__cxx11::basic_string", i8, i8, i8, i32, i32, i8, i32, %"class.std::map", i32, %"class.std::__cxx11::basic_string", %"class.std::__cxx11::basic_string", %"class.std::__cxx11::basic_string", %"class.std::__cxx11::basic_string", i8, %"class.std::vector.17", i8, %"class.std::vector.17", i8, %"class.std::vector.17", i8, i32, i8, i32, i32, i32, i32, i32, i8, i32 }
%"struct.zmq::atomic_value_t" = type { %"struct.std::atomic" }
%"struct.std::atomic" = type { %"struct.std::__atomic_base" }
%"struct.std::__atomic_base" = type { i32 }
%"class.std::vector" = type { %"struct.std::_Vector_base" }
%"struct.std::_Vector_base" = type { %"struct.std::_Vector_base<zmq::tcp_address_mask_t, std::allocator<zmq::tcp_address_mask_t>>::_Vector_impl" }
%"struct.std::_Vector_base<zmq::tcp_address_mask_t, std::allocator<zmq::tcp_address_mask_t>>::_Vector_impl" = type { %"struct.std::_Vector_base<zmq::tcp_address_mask_t, std::allocator<zmq::tcp_address_mask_t>>::_Vector_impl_data" }
%"struct.std::_Vector_base<zmq::tcp_address_mask_t, std::allocator<zmq::tcp_address_mask_t>>::_Vector_impl_data" = type { ptr, ptr, ptr }
%"class.std::set" = type { %"class.std::_Rb_tree" }
%"class.std::_Rb_tree" = type { %"struct.std::_Rb_tree<unsigned int, unsigned int, std::_Identity<unsigned int>, std::less<unsigned int>>::_Rb_tree_impl" }
%"struct.std::_Rb_tree<unsigned int, unsigned int, std::_Identity<unsigned int>, std::less<unsigned int>>::_Rb_tree_impl" = type { [8 x i8], %"struct.std::_Rb_tree_header" }
%"struct.std::_Rb_tree_header" = type { %"struct.std::_Rb_tree_node_base", i64 }
%"struct.std::_Rb_tree_node_base" = type { i32, ptr, ptr, ptr }
%"class.std::set.6" = type { %"class.std::_Rb_tree.7" }
%"class.std::_Rb_tree.7" = type { %"struct.std::_Rb_tree<int, int, std::_Identity<int>, std::less<int>>::_Rb_tree_impl" }
%"struct.std::_Rb_tree<int, int, std::_Identity<int>, std::less<int>>::_Rb_tree_impl" = type { [8 x i8], %"struct.std::_Rb_tree_header" }
%"class.std::vector.17" = type { %"struct.std::_Vector_base.18" }
%"struct.std::_Vector_base.18" = type { %"struct.std::_Vector_base<unsigned char, std::allocator<unsigned char>>::_Vector_impl" }
%"struct.std::_Vector_base<unsigned char, std::allocator<unsigned char>>::_Vector_impl" = type { %"struct.std::_Vector_base<unsigned char, std::allocator<unsigned char>>::_Vector_impl_data" }
%"struct.std::_Vector_base<unsigned char, std::allocator<unsigned char>>::_Vector_impl_data" = type { ptr, ptr, ptr }
%"class.std::map" = type { %"class.std::_Rb_tree.12" }
%"class.std::_Rb_tree.12" = type { %"struct.std::_Rb_tree<std::__cxx11::basic_string<char>, std::pair<const std::__cxx11::basic_string<char>, std::__cxx11::basic_string<char>>, std::_Select1st<std::pair<const std::__cxx11::basic_string<char>, std::__cxx11::basic_string<char>>>, std::less<std::__cxx11::basic_string<char>>>::_Rb_tree_impl" }
%"struct.std::_Rb_tree<std::__cxx11::basic_string<char>, std::pair<const std::__cxx11::basic_string<char>, std::__cxx11::basic_string<char>>, std::_Select1st<std::pair<const std::__cxx11::basic_string<char>, std::__cxx11::basic_string<char>>>, std::less<std::__cxx11::basic_string<char>>>::_Rb_tree_impl" = type { [8 x i8], %"struct.std::_Rb_tree_header" }
%"struct.zmq::blob_t" = type <{ ptr, i64, i8, [7 x i8] }>

; Function Attrs: mustprogress uwtable
define noundef i32 @_ZN3zmq16null_mechanism_t21process_error_commandEPKhm(ptr noundef nonnull align 8 dereferenceable(1576) %0, ptr noundef %1, i64 noundef %2) #0 align 2 {
  %4 = alloca i32, align 4
  %5 = alloca ptr, align 8
  %6 = alloca ptr, align 8
  %7 = alloca i64, align 8
  %8 = alloca i64, align 8
  %9 = alloca i32, align 4
  %10 = alloca i64, align 8
  %11 = alloca ptr, align 8
  store ptr %0, ptr %5, align 8, !tbaa !3
  store ptr %1, ptr %6, align 8, !tbaa !80
  store i64 %2, ptr %7, align 8, !tbaa !77
  %12 = load ptr, ptr %5, align 8
  call void @llvm.lifetime.start.p0(i64 8, ptr %8) #17
  store i64 7, ptr %8, align 8, !tbaa !77
  %13 = load i64, ptr %7, align 8, !tbaa !77
  %14 = icmp ult i64 %13, 7
  br i1 %14, label %15, label %25

15:                                               ; preds = %3
  %16 = getelementptr inbounds i8, ptr %12, i64 80
  %17 = getelementptr inbounds nuw %"class.zmq::mechanism_base_t", ptr %16, i32 0, i32 1
  %18 = load ptr, ptr %17, align 8, !tbaa !39
  %19 = call noundef ptr @_ZNK3zmq14session_base_t10get_socketEv(ptr noundef nonnull align 8 dereferenceable(1624) %18)
  %20 = getelementptr inbounds i8, ptr %12, i64 80
  %21 = getelementptr inbounds nuw %"class.zmq::mechanism_base_t", ptr %20, i32 0, i32 1
  %22 = load ptr, ptr %21, align 8, !tbaa !39
  %23 = call noundef nonnull align 8 dereferenceable(68) ptr @_ZNK3zmq14session_base_t12get_endpointEv(ptr noundef nonnull align 8 dereferenceable(1624) %22)
  call void @_ZN3zmq13socket_base_t31event_handshake_failed_protocolERKNS_19endpoint_uri_pair_tEi(ptr noundef nonnull align 8 dereferenceable(1825) %19, ptr noundef nonnull align 8 dereferenceable(68) %23, i32 noundef 268435477)
  %24 = call ptr @__errno_location() #19
  store i32 71, ptr %24, align 4, !tbaa !37
  store i32 -1, ptr %4, align 4
  store i32 1, ptr %9, align 4
  br label %52

25:                                               ; preds = %3
  call void @llvm.lifetime.start.p0(i64 8, ptr %10) #17
  %26 = load ptr, ptr %6, align 8, !tbaa !80
  %27 = getelementptr inbounds nuw i8, ptr %26, i64 6
  %28 = load i8, ptr %27, align 1, !tbaa !81
  %29 = zext i8 %28 to i64
  store i64 %29, ptr %10, align 8, !tbaa !77
  %30 = load i64, ptr %10, align 8, !tbaa !77
  %31 = load i64, ptr %7, align 8, !tbaa !77
  %32 = sub i64 %31, 7
  %33 = icmp ugt i64 %30, %32
  br i1 %33, label %34, label %44

34:                                               ; preds = %25
  %35 = getelementptr inbounds i8, ptr %12, i64 80
  %36 = getelementptr inbounds nuw %"class.zmq::mechanism_base_t", ptr %35, i32 0, i32 1
  %37 = load ptr, ptr %36, align 8, !tbaa !39
  %38 = call noundef ptr @_ZNK3zmq14session_base_t10get_socketEv(ptr noundef nonnull align 8 dereferenceable(1624) %37)
  %39 = getelementptr inbounds i8, ptr %12, i64 80
  %40 = getelementptr inbounds nuw %"class.zmq::mechanism_base_t", ptr %39, i32 0, i32 1
  %41 = load ptr, ptr %40, align 8, !tbaa !39
  %42 = call noundef nonnull align 8 dereferenceable(68) ptr @_ZNK3zmq14session_base_t12get_endpointEv(ptr noundef nonnull align 8 dereferenceable(1624) %41)
  call void @_ZN3zmq13socket_base_t31event_handshake_failed_protocolERKNS_19endpoint_uri_pair_tEi(ptr noundef nonnull align 8 dereferenceable(1825) %38, ptr noundef nonnull align 8 dereferenceable(68) %42, i32 noundef 268435477)
  %43 = call ptr @__errno_location() #19
  store i32 71, ptr %43, align 4, !tbaa !37
  store i32 -1, ptr %4, align 4
  store i32 1, ptr %9, align 4
  br label %51

44:                                               ; preds = %25
  call void @llvm.lifetime.start.p0(i64 8, ptr %11) #17
  %45 = load ptr, ptr %6, align 8, !tbaa !80
  %46 = getelementptr inbounds nuw i8, ptr %45, i64 7
  store ptr %46, ptr %11, align 8, !tbaa !80
  %47 = getelementptr inbounds i8, ptr %12, i64 80
  %48 = load ptr, ptr %11, align 8, !tbaa !80
  %49 = load i64, ptr %10, align 8, !tbaa !77
  call void @_ZN3zmq16mechanism_base_t19handle_error_reasonEPKcm(ptr noundef nonnull align 8 dereferenceable(1496) %47, ptr noundef %48, i64 noundef %49)
  %50 = getelementptr inbounds nuw %"class.zmq::null_mechanism_t", ptr %12, i32 0, i32 4
  store i8 1, ptr %50, align 1, !tbaa !28
  store i32 0, ptr %4, align 4
  store i32 1, ptr %9, align 4
  call void @llvm.lifetime.end.p0(i64 8, ptr %11) #17
  br label %51

51:                                               ; preds = %44, %34
  call void @llvm.lifetime.end.p0(i64 8, ptr %10) #17
  br label %52

52:                                               ; preds = %51, %15
  call void @llvm.lifetime.end.p0(i64 8, ptr %8) #17
  %53 = load i32, ptr %4, align 4
  ret i32 %53
}