; Function Attrs: mustprogress uwtable
define noundef range(i32 -1, 1) i32 @_ZN3zmq16null_mechanism_t21process_error_commandEPKhm(ptr noundef nonnull align 8 dereferenceable(1576) %0, ptr noundef %1, i64 noundef %2) local_unnamed_addr #0 align 2 {
  %4 = icmp ult i64 %2, 7
  br i1 %4, label %5, label %12

5:                                                ; preds = %3
  %6 = getelementptr inbounds nuw i8, ptr %0, i64 1568
  %7 = load ptr, ptr %6, align 8, !tbaa !25
  %8 = tail call noundef ptr @_ZNK3zmq14session_base_t10get_socketEv(ptr noundef nonnull align 8 dereferenceable(1624) %7)
  %9 = load ptr, ptr %6, align 8, !tbaa !25
  %10 = tail call noundef nonnull align 8 dereferenceable(68) ptr @_ZNK3zmq14session_base_t12get_endpointEv(ptr noundef nonnull align 8 dereferenceable(1624) %9)
  tail call void @_ZN3zmq13socket_base_t31event_handshake_failed_protocolERKNS_19endpoint_uri_pair_tEi(ptr noundef nonnull align 8 dereferenceable(1825) %8, ptr noundef nonnull align 8 dereferenceable(68) %10, i32 noundef 268435477)
  %11 = tail call ptr @__errno_location() #20
  store i32 71, ptr %11, align 4, !tbaa !21
  br label %29

12:                                               ; preds = %3
  %13 = getelementptr inbounds nuw i8, ptr %1, i64 6
  %14 = load i8, ptr %13, align 1, !tbaa !67
  %15 = zext i8 %14 to i64
  %16 = add i64 %2, -7
  %17 = icmp ult i64 %16, %15
  br i1 %17, label %18, label %25

18:                                               ; preds = %12
  %19 = getelementptr inbounds nuw i8, ptr %0, i64 1568
  %20 = load ptr, ptr %19, align 8, !tbaa !25
  %21 = tail call noundef ptr @_ZNK3zmq14session_base_t10get_socketEv(ptr noundef nonnull align 8 dereferenceable(1624) %20)
  %22 = load ptr, ptr %19, align 8, !tbaa !25
  %23 = tail call noundef nonnull align 8 dereferenceable(68) ptr @_ZNK3zmq14session_base_t12get_endpointEv(ptr noundef nonnull align 8 dereferenceable(1624) %22)
  tail call void @_ZN3zmq13socket_base_t31event_handshake_failed_protocolERKNS_19endpoint_uri_pair_tEi(ptr noundef nonnull align 8 dereferenceable(1825) %21, ptr noundef nonnull align 8 dereferenceable(68) %23, i32 noundef 268435477)
  %24 = tail call ptr @__errno_location() #20
  store i32 71, ptr %24, align 4, !tbaa !21
  br label %29

25:                                               ; preds = %12
  %26 = getelementptr inbounds nuw i8, ptr %1, i64 7
  %27 = getelementptr inbounds nuw i8, ptr %0, i64 80
  tail call void @_ZN3zmq16mechanism_base_t19handle_error_reasonEPKcm(ptr noundef nonnull align 8 dereferenceable(1496) %27, ptr noundef nonnull %26, i64 noundef %15)
  %28 = getelementptr inbounds nuw i8, ptr %0, i64 75
  store i8 1, ptr %28, align 1, !tbaa !69
  br label %29

29:                                               ; preds = %18, %25, %5
  %.0 = phi i32 [ -1, %5 ], [ -1, %18 ], [ 0, %25 ]
  ret i32 %.0
}